; ModuleID = 'source-C-CXX/15/1095.c'
source_filename = "source-C-CXX/15/1095.c"
target datalayout = "e-m:e-p270:32:32-p271:32:32-p272:64:64-i64:64-f80:128-n8:16:32:64-S128"
target triple = "x86_64-pc-linux-gnu"

@.str = private unnamed_addr constant [3 x i8] c"%d\00", align 1
@.str.1 = private unnamed_addr constant [4 x i8] c"%d\0A\00", align 1
@.str.2 = private unnamed_addr constant [5 x i8] c"0%d\0A\00", align 1
@.str.3 = private unnamed_addr constant [6 x i8] c"00%d\0A\00", align 1
@.str.4 = private unnamed_addr constant [7 x i8] c"000%d\0A\00", align 1

; Function Attrs: nofree nounwind sspstrong uwtable
define dso_local i32 @main() local_unnamed_addr #0 {
  %1 = alloca i32, align 4
  %2 = bitcast i32* %1 to i8*
  call void @llvm.lifetime.start.p0i8(i64 4, i8* nonnull %2) #3
  %3 = call i32 (i8*, ...) @__isoc99_scanf(i8* getelementptr inbounds ([3 x i8], [3 x i8]* @.str, i64 0, i64 0), i32* nonnull %1)
  %4 = load i32, i32* %1, align 4, !tbaa !5
  %5 = sdiv i32 %4, 1000
  %6 = mul nsw i32 %5, -1000
  %7 = add i32 %6, %4
  %8 = sdiv i32 %7, 100
  %9 = mul nsw i32 %8, -100
  %10 = add i32 %9, %7
  %11 = sdiv i32 %10, 10
  %12 = mul nsw i32 %11, -10
  %13 = add i32 %12, %10
  %14 = mul nsw i32 %8, 10
  %15 = add nsw i32 %14, %5
  %16 = mul nsw i32 %11, 100
  %17 = add nsw i32 %15, %16
  %18 = mul nsw i32 %13, 1000
  %19 = add nsw i32 %17, %18
  %20 = icmp sgt i32 %4, 999
  br i1 %20, label %21, label %35

21:                                               ; preds = %0
  %22 = icmp sgt i32 %19, 999
  br i1 %22, label %23, label %25

23:                                               ; preds = %21
  %24 = call i32 (i8*, ...) @printf(i8* nonnull dereferenceable(1) getelementptr inbounds ([4 x i8], [4 x i8]* @.str.1, i64 0, i64 0), i32 %19)
  br label %60

25:                                               ; preds = %21
  %26 = icmp sgt i32 %19, 99
  br i1 %26, label %27, label %29

27:                                               ; preds = %25
  %28 = call i32 (i8*, ...) @printf(i8* nonnull dereferenceable(1) getelementptr inbounds ([5 x i8], [5 x i8]* @.str.2, i64 0, i64 0), i32 %19)
  br label %60

29:                                               ; preds = %25
  %30 = icmp sgt i32 %19, 9
  br i1 %30, label %31, label %33

31:                                               ; preds = %29
  %32 = call i32 (i8*, ...) @printf(i8* nonnull dereferenceable(1) getelementptr inbounds ([6 x i8], [6 x i8]* @.str.3, i64 0, i64 0), i32 %19)
  br label %60

33:                                               ; preds = %29
  %34 = call i32 (i8*, ...) @printf(i8* nonnull dereferenceable(1) getelementptr inbounds ([7 x i8], [7 x i8]* @.str.4, i64 0, i64 0), i32 %19)
  br label %60

35:                                               ; preds = %0
  %36 = icmp sgt i32 %4, 99
  br i1 %36, label %37, label %48

37:                                               ; preds = %35
  %38 = sdiv i32 %19, 10
  %39 = icmp sgt i32 %19, 999
  br i1 %39, label %40, label %42

40:                                               ; preds = %37
  %41 = call i32 (i8*, ...) @printf(i8* nonnull dereferenceable(1) getelementptr inbounds ([4 x i8], [4 x i8]* @.str.1, i64 0, i64 0), i32 %38)
  br label %60

42:                                               ; preds = %37
  %43 = icmp sgt i32 %19, 99
  br i1 %43, label %44, label %46

44:                                               ; preds = %42
  %45 = call i32 (i8*, ...) @printf(i8* nonnull dereferenceable(1) getelementptr inbounds ([5 x i8], [5 x i8]* @.str.2, i64 0, i64 0), i32 %38)
  br label %60

46:                                               ; preds = %42
  %47 = call i32 (i8*, ...) @printf(i8* nonnull dereferenceable(1) getelementptr inbounds ([6 x i8], [6 x i8]* @.str.3, i64 0, i64 0), i32 %38)
  br label %60

48:                                               ; preds = %35
  %49 = icmp sgt i32 %4, 9
  br i1 %49, label %50, label %57

50:                                               ; preds = %48
  %51 = sdiv i32 %19, 100
  %52 = icmp sgt i32 %19, 999
  br i1 %52, label %53, label %55

53:                                               ; preds = %50
  %54 = call i32 (i8*, ...) @printf(i8* nonnull dereferenceable(1) getelementptr inbounds ([4 x i8], [4 x i8]* @.str.1, i64 0, i64 0), i32 %51)
  br label %60

55:                                               ; preds = %50
  %56 = call i32 (i8*, ...) @printf(i8* nonnull dereferenceable(1) getelementptr inbounds ([5 x i8], [5 x i8]* @.str.2, i64 0, i64 0), i32 %51)
  br label %60

57:                                               ; preds = %48
  %58 = sdiv i32 %19, 1000
  %59 = call i32 (i8*, ...) @printf(i8* nonnull dereferenceable(1) getelementptr inbounds ([4 x i8], [4 x i8]* @.str.1, i64 0, i64 0), i32 %58)
  br label %60

60:                                               ; preds = %44, %46, %40, %53, %55, %57, %23, %31, %33, %27
  call void @llvm.lifetime.end.p0i8(i64 4, i8* nonnull %2) #3
  ret i32 0
}

; Function Attrs: argmemonly mustprogress nofree nosync nounwind willreturn
declare void @llvm.lifetime.start.p0i8(i64 immarg, i8* nocapture) #1

; Function Attrs: nofree nounwind
declare noundef i32 @__isoc99_scanf(i8* nocapture noundef readonly, ...) local_unnamed_addr #2

; Function Attrs: nofree nounwind
declare noundef i32 @printf(i8* nocapture noundef readonly, ...) local_unnamed_addr #2

; Function Attrs: argmemonly mustprogress nofree nosync nounwind willreturn
declare void @llvm.lifetime.end.p0i8(i64 immarg, i8* nocapture) #1


!llvm.module.flags = !{!0, !1, !2, !3}
!llvm.ident = !{!4}

!0 = !{i32 1, !"wchar_size", i32 4}
!1 = !{i32 7, !"PIC Level", i32 2}
!2 = !{i32 7, !"PIE Level", i32 2}
!3 = !{i32 7, !"uwtable", i32 1}
!4 = !{!"clang version 13.0.0"}
!5 = !{!6, !6, i64 0}
!6 = !{!"int", !7, i64 0}
!7 = !{!"omnipotent char", !8, i64 0}
!8 = !{!"Simple C/C++ TBAA"}
